target datalayout = "e-m:e-p270:32:32-p271:32:32-p272:64:64-i64:64-i128:128-f80:128-n8:16:32:64-S128"
target triple = "x86_64-pc-linux-gnu"

%struct.QMetaObject = type { %"struct.QMetaObject::Data" }
%"struct.QMetaObject::Data" = type { %"struct.QMetaObject::SuperData", ptr, ptr, ptr, ptr, ptr, ptr }
%"struct.QMetaObject::SuperData" = type { ptr }
%class.QString = type { %struct.QArrayDataPointer }
%struct.QArrayDataPointer = type { ptr, ptr, i64 }
%class.QWidget = type { %class.QObject, %class.QPaintDevice.base, ptr }
%class.QObject = type { ptr, %class.QScopedPointer }
%class.QScopedPointer = type { ptr }
%class.QPaintDevice.base = type <{ ptr, i16 }>
%class.QFrame = type { %class.QWidget }
%class.MainWindow = type { %class.QMainWindow, %class.CaptureFile, %class.QList.2, ptr, ptr, %class.QSplitter, %class.QSplitter, %class.QWidget, %class.QList.6, ptr, ptr, ptr, ptr, ptr, ptr, ptr, i8, %class.QList.10 }
%class.QMainWindow = type { %class.QWidget }
%class.CaptureFile = type { %class.QObject, ptr, %class.QString }
%class.QList.2 = type { %struct.QArrayDataPointer.5 }
%struct.QArrayDataPointer.5 = type { ptr, ptr, i64 }
%class.QSplitter = type { %class.QFrame }
%class.QList.6 = type { %struct.QArrayDataPointer.9 }
%struct.QArrayDataPointer.9 = type { ptr, ptr, i64 }
%class.QList.10 = type { %struct.QArrayDataPointer.13 }
%struct.QArrayDataPointer.13 = type { ptr, ptr, i64 }
%class.QAtomicInt = type { %class.QAtomicInteger }
%class.QAtomicInteger = type { %class.QBasicAtomicInteger }
%class.QBasicAtomicInteger = type { %"struct.std::atomic" }
%"struct.std::atomic" = type { %"struct.std::__atomic_base" }
%"struct.std::__atomic_base" = type { i32 }
%"class.QMetaObject::Connection" = type { ptr }
%class.anon.325 = type { ptr }
%"class.QtPrivate::QSlotObjectBase" = type { %class.QAtomicInt, ptr }
%"class.QtPrivate::QFunctorSlotObject.764" = type { %"class.QtPrivate::QSlotObjectBase", %class.anon.325 }

@_ZZN9QtPrivate15ConnectionTypesINS_4ListIJiEEELb1EE5typesEvE1t = linkonce_odr constant [2 x i32] [i32 2, i32 0], comdat, align 4
@_ZN17LteRlcGraphDialog16staticMetaObjectE = external global %struct.QMetaObject, align 8

; Function Attrs: mustprogress nounwind null_pointer_is_valid sspstrong uwtable
define linkonce_odr void @_ZNSt13__atomic_baseIiEC2Ei(ptr noundef align 4 dereferenceable_or_null(4) %0, i32 noundef %1) unnamed_addr #7 comdat align 2 {
  %3 = alloca ptr, align 8
  %4 = alloca i32, align 4
  store ptr %0, ptr %3, align 8
  store i32 %1, ptr %4, align 4
  %5 = load ptr, ptr %3, align 8
  %6 = getelementptr inbounds nuw %"struct.std::__atomic_base", ptr %5, i32 0, i32 0
  %7 = load i32, ptr %4, align 4
  store i32 %7, ptr %6, align 4
  ret void
}

; Function Attrs: mustprogress nounwind null_pointer_is_valid sspstrong uwtable
define linkonce_odr void @_ZNSt6atomicIiEC2Ei(ptr noundef align 4 dereferenceable_or_null(4) %0, i32 noundef %1) unnamed_addr #7 comdat align 2 {
  %3 = alloca ptr, align 8
  %4 = alloca i32, align 4
  store ptr %0, ptr %3, align 8
  store i32 %1, ptr %4, align 4
  %5 = load ptr, ptr %3, align 8
  %6 = load i32, ptr %4, align 4
  call void @_ZNSt13__atomic_baseIiEC2Ei(ptr noundef align 4 dereferenceable_or_null(4) %5, i32 noundef %6) #24
  ret void
}

; Function Attrs: mustprogress nounwind null_pointer_is_valid sspstrong uwtable
define linkonce_odr void @_ZN19QBasicAtomicIntegerIiEC2Ei(ptr noundef align 4 dereferenceable_or_null(4) %0, i32 noundef %1) unnamed_addr #7 comdat align 2 {
  %3 = alloca ptr, align 8
  %4 = alloca i32, align 4
  store ptr %0, ptr %3, align 8
  store i32 %1, ptr %4, align 4
  %5 = load ptr, ptr %3, align 8
  %6 = getelementptr inbounds nuw %class.QBasicAtomicInteger, ptr %5, i32 0, i32 0
  %7 = load i32, ptr %4, align 4
  call void @_ZNSt6atomicIiEC2Ei(ptr noundef align 4 dereferenceable_or_null(4) %6, i32 noundef %7) #24
  ret void
}

; Function Attrs: mustprogress nounwind null_pointer_is_valid sspstrong uwtable
define linkonce_odr void @_ZN14QAtomicIntegerIiEC2Ei(ptr noundef align 4 dereferenceable_or_null(4) %0, i32 noundef %1) unnamed_addr #7 comdat align 2 {
  %3 = alloca ptr, align 8
  %4 = alloca i32, align 4
  store ptr %0, ptr %3, align 8
  store i32 %1, ptr %4, align 4
  %5 = load ptr, ptr %3, align 8
  %6 = load i32, ptr %4, align 4
  call void @_ZN19QBasicAtomicIntegerIiEC2Ei(ptr noundef align 4 dereferenceable_or_null(4) %5, i32 noundef %6) #24
  ret void
}

; Function Attrs: mustprogress nounwind null_pointer_is_valid sspstrong uwtable
define linkonce_odr void @_ZN10QAtomicIntC2Ei(ptr noundef align 4 dereferenceable_or_null(4) %0, i32 noundef %1) unnamed_addr #7 comdat align 2 {
  %3 = alloca ptr, align 8
  %4 = alloca i32, align 4
  store ptr %0, ptr %3, align 8
  store i32 %1, ptr %4, align 4
  %5 = load ptr, ptr %3, align 8
  %6 = load i32, ptr %4, align 4
  call void @_ZN14QAtomicIntegerIiEC2Ei(ptr noundef align 4 dereferenceable_or_null(4) %5, i32 noundef %6) #24
  ret void
}

; Function Attrs: mustprogress nounwind null_pointer_is_valid sspstrong uwtable
define linkonce_odr void @_ZN9QtPrivate15QSlotObjectBaseC2EPFviPS0_P7QObjectPPvPbE(ptr noundef align 8 dereferenceable_or_null(16) %0, ptr noundef %1) unnamed_addr #7 comdat align 2 {
  %3 = alloca ptr, align 8
  %4 = alloca ptr, align 8
  store ptr %0, ptr %3, align 8
  store ptr %1, ptr %4, align 8
  %5 = load ptr, ptr %3, align 8
  %6 = getelementptr inbounds nuw %"class.QtPrivate::QSlotObjectBase", ptr %5, i32 0, i32 0
  call void @_ZN10QAtomicIntC2Ei(ptr noundef align 4 dereferenceable_or_null(4) %6, i32 noundef 1) #24
  %7 = getelementptr inbounds nuw %"class.QtPrivate::QSlotObjectBase", ptr %5, i32 0, i32 1
  %8 = load ptr, ptr %4, align 8
  store ptr %8, ptr %7, align 8
  ret void
}

; Function Attrs: mustprogress nounwind null_pointer_is_valid sspstrong uwtable
define internal void @"_ZN9QtPrivate18QFunctorSlotObjectIZN19WiresharkMainWindow14launchRLCGraphEbhthtthE3$_0Li1ENS_4ListIJiEEEvEC2ES2_"(ptr noundef align 8 dereferenceable_or_null(24) %0, ptr %1) unnamed_addr #7 align 2 {
  %3 = alloca %class.anon.325, align 8
  %4 = alloca ptr, align 8
  %5 = getelementptr inbounds nuw %class.anon.325, ptr %3, i32 0, i32 0
  store ptr %1, ptr %5, align 8
  store ptr %0, ptr %4, align 8
  %6 = load ptr, ptr %4, align 8
  call void @_ZN9QtPrivate15QSlotObjectBaseC2EPFviPS0_P7QObjectPPvPbE(ptr noundef align 8 dereferenceable_or_null(16) %6, ptr noundef @"_ZN9QtPrivate18QFunctorSlotObjectIZN19WiresharkMainWindow14launchRLCGraphEbhthtthE3$_0Li1ENS_4ListIJiEEEvE4implEiPNS_15QSlotObjectBaseEP7QObjectPPvPb")
  %7 = getelementptr inbounds nuw %"class.QtPrivate::QFunctorSlotObject.764", ptr %6, i32 0, i32 1
  call void @llvm.memcpy.p0.p0.i64(ptr align 8 %7, ptr align 8 %3, i64 8, i1 false)
  ret void
}

; Function Attrs: mustprogress nounwind null_pointer_is_valid sspstrong uwtable
define linkonce_odr noundef ptr @_ZN9QtPrivate15ConnectionTypesINS_4ListIJiEEELb1EE5typesEv() #7 comdat align 2 {
  ret ptr @_ZZN9QtPrivate15ConnectionTypesINS_4ListIJiEEELb1EE5typesEvE1t
}

; Function Attrs: inlinehint mustprogress null_pointer_is_valid sspstrong uwtable
define internal void @"_ZN7QObject7connectIM17LteRlcGraphDialogFviEZN19WiresharkMainWindow14launchRLCGraphEbhthtthE3$_0EENSt9enable_ifIXeqsr9QtPrivate15FunctionPointerIT0_EE13ArgumentCountngLi1EEN11QMetaObject10ConnectionEE4typeEPKN9QtPrivate15FunctionPointerIT_E6ObjectESE_PKS_S7_N2Qt14ConnectionTypeE"(ptr dead_on_unwind noalias writable sret(%"class.QMetaObject::Connection") align 8 %0, ptr noundef %1, i64 %2, i64 %3, ptr noundef %4, ptr %5, i32 noundef %6) #2 align 2 personality ptr @__gxx_personality_v0 {
  %8 = alloca ptr, align 8
  %9 = alloca { i64, i64 }, align 8
  %10 = alloca %class.anon.325, align 8
  %11 = alloca ptr, align 8
  %12 = alloca { i64, i64 }, align 8
  %13 = alloca ptr, align 8
  %14 = alloca i32, align 4
  %15 = alloca i32, align 4
  %16 = alloca i32, align 4
  %17 = alloca ptr, align 8
  %18 = alloca %class.anon.325, align 8
  %19 = alloca ptr, align 8
  %20 = alloca i32, align 4
  store ptr %0, ptr %8, align 8
  %21 = getelementptr inbounds nuw { i64, i64 }, ptr %9, i32 0, i32 0
  store i64 %2, ptr %21, align 8
  %22 = getelementptr inbounds nuw { i64, i64 }, ptr %9, i32 0, i32 1
  store i64 %3, ptr %22, align 8
  %23 = load { i64, i64 }, ptr %9, align 8
  %24 = getelementptr inbounds nuw %class.anon.325, ptr %10, i32 0, i32 0
  store ptr %5, ptr %24, align 8
  store ptr %1, ptr %11, align 8
  store { i64, i64 } %23, ptr %12, align 8
  store ptr %4, ptr %13, align 8
  store i32 %6, ptr %14, align 4
  call void @llvm.lifetime.start.p0(i64 4, ptr %15) #24
  store i32 1, ptr %15, align 4
  call void @llvm.lifetime.start.p0(i64 4, ptr %16) #24
  store i32 1, ptr %16, align 4
  call void @llvm.lifetime.start.p0(i64 8, ptr %17) #24
  store ptr null, ptr %17, align 8
  %25 = load i32, ptr %14, align 4
  %26 = icmp eq i32 %25, 2
  br i1 %26, label %30, label %27

27:                                               ; preds = %7
  %28 = load i32, ptr %14, align 4
  %29 = icmp eq i32 %28, 3
  br i1 %29, label %30, label %32

30:                                               ; preds = %27, %7
  %31 = call noundef ptr @_ZN9QtPrivate15ConnectionTypesINS_4ListIJiEEELb1EE5typesEv()
  store ptr %31, ptr %17, align 8
  br label %32

32:                                               ; preds = %30, %27
  %33 = load ptr, ptr %11, align 8
  %34 = load ptr, ptr %13, align 8
  %35 = call noalias noundef ptr @_Znwm(i64 noundef 24) #26
  call void @llvm.memcpy.p0.p0.i64(ptr align 8 %18, ptr align 8 %10, i64 8, i1 false)
  %36 = getelementptr inbounds nuw %class.anon.325, ptr %18, i32 0, i32 0
  %37 = load ptr, ptr %36, align 8
  invoke void @"_ZN9QtPrivate18QFunctorSlotObjectIZN19WiresharkMainWindow14launchRLCGraphEbhthtthE3$_0Li1ENS_4ListIJiEEEvEC2ES2_"(ptr noundef align 8 dereferenceable_or_null(24) %35, ptr %37)
          to label %38 unwind label %41

38:                                               ; preds = %32
  %39 = load i32, ptr %14, align 4
  %40 = load ptr, ptr %17, align 8
  call void @_ZN7QObject11connectImplEPKS_PPvS1_S3_PN9QtPrivate15QSlotObjectBaseEN2Qt14ConnectionTypeEPKiPK11QMetaObject(ptr dead_on_unwind writable sret(%"class.QMetaObject::Connection") align 8 %0, ptr noundef %33, ptr noundef %12, ptr noundef %34, ptr noundef null, ptr noundef %35, i32 noundef %39, ptr noundef %40, ptr noundef @_ZN17LteRlcGraphDialog16staticMetaObjectE)
  call void @llvm.lifetime.end.p0(i64 8, ptr %17) #24
  call void @llvm.lifetime.end.p0(i64 4, ptr %16) #24
  call void @llvm.lifetime.end.p0(i64 4, ptr %15) #24
  ret void

41:                                               ; preds = %32
  %42 = landingpad { ptr, i32 }
          cleanup
  %43 = extractvalue { ptr, i32 } %42, 0
  store ptr %43, ptr %19, align 8
  %44 = extractvalue { ptr, i32 } %42, 1
  store i32 %44, ptr %20, align 4
  call void @_ZdlPvm(ptr noundef %35, i64 noundef 24) #27
  call void @llvm.lifetime.end.p0(i64 8, ptr %17) #24
  call void @llvm.lifetime.end.p0(i64 4, ptr %16) #24
  call void @llvm.lifetime.end.p0(i64 4, ptr %15) #24
  br label %45

45:                                               ; preds = %41
  %46 = load ptr, ptr %19, align 8
  %47 = load i32, ptr %20, align 4
  %48 = insertvalue { ptr, i32 } poison, ptr %46, 0
  %49 = insertvalue { ptr, i32 } %48, i32 %47, 1
  resume { ptr, i32 } %49
}

; Function Attrs: mustprogress null_pointer_is_valid sspstrong uwtable
define void @_ZN19WiresharkMainWindow14launchRLCGraphEbhthtth(ptr noundef align 8 dereferenceable_or_null(560) %0, i1 noundef zeroext %1, i8 noundef zeroext %2, i16 noundef zeroext %3, i8 noundef zeroext %4, i16 noundef zeroext %5, i16 noundef zeroext %6, i8 noundef zeroext %7) #0 align 2 personality ptr @__gxx_personality_v0 {
  %9 = alloca ptr, align 8
  %10 = alloca i8, align 1
  %11 = alloca i8, align 1
  %12 = alloca i16, align 2
  %13 = alloca i8, align 1
  %14 = alloca i16, align 2
  %15 = alloca i16, align 2
  %16 = alloca i8, align 1
  %17 = alloca ptr, align 8
  %18 = alloca ptr, align 8
  %19 = alloca i32, align 4
  %20 = alloca %"class.QMetaObject::Connection", align 8
  %21 = alloca %class.anon.325, align 8
  %22 = alloca { i64, i64 }, align 8
  store ptr %0, ptr %9, align 8
  %23 = zext i1 %1 to i8
  store i8 %23, ptr %10, align 1
  store i8 %2, ptr %11, align 1
  store i16 %3, ptr %12, align 2
  store i8 %4, ptr %13, align 1
  store i16 %5, ptr %14, align 2
  store i16 %6, ptr %15, align 2
  store i8 %7, ptr %16, align 1
  %24 = load ptr, ptr %9, align 8
  call void @llvm.lifetime.start.p0(i64 8, ptr %17) #24
  %25 = call noalias noundef ptr @_Znwm(i64 noundef 280) #26
  %26 = getelementptr inbounds nuw %class.MainWindow, ptr %24, i32 0, i32 1
  %27 = load i8, ptr %10, align 1, !range !6, !noundef !7
  %28 = trunc i8 %27 to i1
  invoke void @_ZN17LteRlcGraphDialogC1ER7QWidgetR11CaptureFileb(ptr noundef align 8 dereferenceable_or_null(276) %25, ptr noundef align 8 dereferenceable(40) %24, ptr noundef align 8 dereferenceable(48) %26, i1 noundef zeroext %28)
          to label %29 unwind label %48

29:                                               ; preds = %8
  store ptr %25, ptr %17, align 8
  %30 = load ptr, ptr %17, align 8
  %31 = getelementptr inbounds nuw %class.anon.325, ptr %21, i32 0, i32 0
  store ptr %24, ptr %31, align 8
  store { i64, i64 } { i64 ptrtoint (ptr @_ZN17LteRlcGraphDialog10goToPacketEi to i64), i64 0 }, ptr %22, align 8
  %32 = getelementptr inbounds nuw { i64, i64 }, ptr %22, i32 0, i32 0
  %33 = load i64, ptr %32, align 8
  %34 = getelementptr inbounds nuw { i64, i64 }, ptr %22, i32 0, i32 1
  %35 = load i64, ptr %34, align 8
  %36 = getelementptr inbounds nuw %class.anon.325, ptr %21, i32 0, i32 0
  %37 = load ptr, ptr %36, align 8
  call void @"_ZN7QObject7connectIM17LteRlcGraphDialogFviEZN19WiresharkMainWindow14launchRLCGraphEbhthtthE3$_0EENSt9enable_ifIXeqsr9QtPrivate15FunctionPointerIT0_EE13ArgumentCountngLi1EEN11QMetaObject10ConnectionEE4typeEPKN9QtPrivate15FunctionPointerIT_E6ObjectESE_PKS_S7_N2Qt14ConnectionTypeE"(ptr dead_on_unwind writable sret(%"class.QMetaObject::Connection") align 8 %20, ptr noundef %30, i64 %33, i64 %35, ptr noundef %24, ptr %37, i32 noundef 0)
  call void @_ZN11QMetaObject10ConnectionD1Ev(ptr noundef align 8 dereferenceable_or_null(8) %20) #24
  %38 = load i8, ptr %10, align 1, !range !6, !noundef !7
  %39 = trunc i8 %38 to i1
  br i1 %39, label %40, label %52

40:                                               ; preds = %29
  %41 = load ptr, ptr %17, align 8
  %42 = load i8, ptr %11, align 1
  %43 = load i16, ptr %12, align 2
  %44 = load i8, ptr %13, align 1
  %45 = load i16, ptr %14, align 2
  %46 = load i16, ptr %15, align 2
  %47 = load i8, ptr %16, align 1
  call void @_ZN17LteRlcGraphDialog14setChannelInfoEhthtthb(ptr noundef align 8 dereferenceable_or_null(276) %41, i8 noundef zeroext %42, i16 noundef zeroext %43, i8 noundef zeroext %44, i16 noundef zeroext %45, i16 noundef zeroext %46, i8 noundef zeroext %47, i1 noundef zeroext false)
  br label %52

48:                                               ; preds = %8
  %49 = landingpad { ptr, i32 }
          cleanup
  %50 = extractvalue { ptr, i32 } %49, 0
  store ptr %50, ptr %18, align 8
  %51 = extractvalue { ptr, i32 } %49, 1
  store i32 %51, ptr %19, align 4
  call void @_ZdlPvm(ptr noundef %25, i64 noundef 280) #27
  call void @llvm.lifetime.end.p0(i64 8, ptr %17) #24
  br label %54

52:                                               ; preds = %40, %29
  %53 = load ptr, ptr %17, align 8
  call void @_ZN7QWidget4showEv(ptr noundef align 8 dereferenceable_or_null(40) %53)
  call void @llvm.lifetime.end.p0(i64 8, ptr %17) #24
  ret void

54:                                               ; preds = %48
  %55 = load ptr, ptr %18, align 8
  %56 = load i32, ptr %19, align 4
  %57 = insertvalue { ptr, i32 } poison, ptr %55, 0
  %58 = insertvalue { ptr, i32 } %57, i32 %56, 1
  resume { ptr, i32 } %58
}