; Function Attrs: mustprogress null_pointer_is_valid sspstrong uwtable
define void @_ZN19WiresharkMainWindow14launchRLCGraphEbhthtth(ptr noundef align 8 dereferenceable_or_null(560) %0, i1 noundef zeroext %1, i8 noundef zeroext %2, i16 noundef zeroext %3, i8 noundef zeroext %4, i16 noundef zeroext %5, i16 noundef zeroext %6, i8 noundef zeroext %7) #0 align 2 personality ptr @__gxx_personality_v0 {
  %9 = alloca { i64, i64 }, align 8
  %10 = alloca %"class.QMetaObject::Connection", align 8
  %11 = tail call noalias noundef dereferenceable_or_null(280) ptr @_Znwm(i64 noundef 280) #28
  %12 = getelementptr inbounds nuw i8, ptr %0, i64 40
  invoke void @_ZN17LteRlcGraphDialogC1ER7QWidgetR11CaptureFileb(ptr noundef align 8 dereferenceable_or_null(276) %11, ptr noundef align 8 dereferenceable(40) %0, ptr noundef nonnull align 8 dereferenceable(48) %12, i1 noundef zeroext %1)
          to label %13 unwind label %18

13:                                               ; preds = %8
  call void @llvm.lifetime.start.p0(i64 16, ptr nonnull %9)
  store i64 ptrtoint (ptr @_ZN17LteRlcGraphDialog10goToPacketEi to i64), ptr %9, align 8, !noalias !927
  %.fca.1.gep.i = getelementptr inbounds nuw i8, ptr %9, i64 8
  store i64 0, ptr %.fca.1.gep.i, align 8, !noalias !927
  %14 = tail call noalias noundef dereferenceable_or_null(24) ptr @_Znwm(i64 noundef 24) #28, !noalias !927
  store i32 1, ptr %14, align 4, !noalias !927
  %15 = getelementptr inbounds nuw i8, ptr %14, i64 8
  store ptr @"_ZN9QtPrivate18QFunctorSlotObjectIZN19WiresharkMainWindow14launchRLCGraphEbhthtthE3$_0Li1ENS_4ListIJiEEEvE4implEiPNS_15QSlotObjectBaseEP7QObjectPPvPb", ptr %15, align 8, !noalias !927
  %16 = getelementptr inbounds nuw i8, ptr %14, i64 16
  store ptr %0, ptr %16, align 8, !noalias !927
  call void @_ZN7QObject11connectImplEPKS_PPvS1_S3_PN9QtPrivate15QSlotObjectBaseEN2Qt14ConnectionTypeEPKiPK11QMetaObject(ptr dead_on_unwind nonnull writable sret(%"class.QMetaObject::Connection") align 8 %10, ptr noundef %11, ptr noundef nonnull %9, ptr noundef %0, ptr noundef null, ptr noundef %14, i32 noundef 0, ptr noundef null, ptr noundef nonnull @_ZN17LteRlcGraphDialog16staticMetaObjectE)
  call void @llvm.lifetime.end.p0(i64 16, ptr nonnull %9)
  call void @_ZN11QMetaObject10ConnectionD1Ev(ptr noundef nonnull align 8 dereferenceable_or_null(8) %10) #25
  br i1 %1, label %17, label %20

17:                                               ; preds = %13
  call void @_ZN17LteRlcGraphDialog14setChannelInfoEhthtthb(ptr noundef align 8 dereferenceable_or_null(276) %11, i8 noundef zeroext %2, i16 noundef zeroext %3, i8 noundef zeroext %4, i16 noundef zeroext %5, i16 noundef zeroext %6, i8 noundef zeroext %7, i1 noundef zeroext false)
  br label %20

18:                                               ; preds = %8
  %19 = landingpad { ptr, i32 }
          cleanup
  tail call void @_ZdlPvm(ptr noundef %11, i64 noundef 280) #26
  resume { ptr, i32 } %19

20:                                               ; preds = %17, %13
  call void @_ZN7QWidget4showEv(ptr noundef align 8 dereferenceable_or_null(40) %11)
  ret void
}